; Function Attrs: mustprogress nofree norecurse nosync nounwind willreturn memory(read, inaccessiblemem: none) uwtable
define internal range(i32 0, 101) i32 @hnm_probe(ptr noundef readonly captures(none) %0) #0 {
  %2 = getelementptr inbounds nuw i8, ptr %0, i64 16
  %3 = load i32, ptr %2, align 8, !tbaa !4
  %4 = icmp slt i32 %3, 4
  br i1 %4, label %10, label %5

5:                                                ; preds = %1
  %6 = getelementptr inbounds nuw i8, ptr %0, i64 8
  %7 = load ptr, ptr %6, align 8, !tbaa !11
  %8 = load i32, ptr %7, align 1, !tbaa !12
  %9 = icmp eq i32 %8, 877481544
  %. = select i1 %9, i32 100, i32 0
  br label %10

10:                                               ; preds = %5, %1
  %.0 = phi i32 [ 0, %1 ], [ %., %5 ]
  ret i32 %.0
}